; ModuleID = 'source-C-CXX/35/115.c'
source_filename = "source-C-CXX/35/115.c"
target datalayout = "e-m:e-p270:32:32-p271:32:32-p272:64:64-i64:64-f80:128-n8:16:32:64-S128"
target triple = "x86_64-pc-linux-gnu"

@.str = private unnamed_addr constant [5 x i8] c"%s%s\00", align 1
@.str.1 = private unnamed_addr constant [3 x i8] c"NO\00", align 1
@.str.2 = private unnamed_addr constant [4 x i8] c"YES\00", align 1

; Function Attrs: nofree nounwind sspstrong uwtable
define dso_local void @main() local_unnamed_addr #0 {
  %1 = alloca [40 x i8], align 16
  %2 = alloca [40 x i8], align 16
  %3 = getelementptr inbounds [40 x i8], [40 x i8]* %1, i64 0, i64 0
  call void @llvm.lifetime.start.p0i8(i64 40, i8* nonnull %3) #4
  %4 = getelementptr inbounds [40 x i8], [40 x i8]* %2, i64 0, i64 0
  call void @llvm.lifetime.start.p0i8(i64 40, i8* nonnull %4) #4
  %5 = call i32 (i8*, ...) @__isoc99_scanf(i8* getelementptr inbounds ([5 x i8], [5 x i8]* @.str, i64 0, i64 0), i8* nonnull %3, i8* nonnull %4)
  %6 = call i64 @strlen(i8* noundef nonnull %3) #5
  %7 = trunc i64 %6 to i32
  %8 = call i64 @strlen(i8* noundef nonnull %4) #5
  %9 = trunc i64 %8 to i32
  %10 = icmp eq i32 %7, %9
  br i1 %10, label %11, label %97

11:                                               ; preds = %0
  %12 = add i32 %7, -1
  %13 = icmp sgt i32 %7, 1
  br i1 %13, label %14, label %97

14:                                               ; preds = %11, %53
  %15 = phi i32 [ %54, %53 ], [ 0, %11 ]
  %16 = sub i32 %12, %15
  %17 = zext i32 %16 to i64
  %18 = icmp sgt i32 %12, %15
  br i1 %18, label %19, label %53

19:                                               ; preds = %14
  %20 = load i8, i8* %3, align 16, !tbaa !5
  %21 = and i64 %17, 1
  %22 = icmp eq i32 %16, 1
  br i1 %22, label %42, label %23

23:                                               ; preds = %19
  %24 = and i64 %17, 4294967294
  br label %26

25:                                               ; preds = %53
  br i1 %13, label %56, label %97

26:                                               ; preds = %102, %23
  %27 = phi i8 [ %20, %23 ], [ %103, %102 ]
  %28 = phi i64 [ 0, %23 ], [ %38, %102 ]
  %29 = phi i64 [ %24, %23 ], [ %104, %102 ]
  %30 = or i64 %28, 1
  %31 = getelementptr inbounds [40 x i8], [40 x i8]* %1, i64 0, i64 %30
  %32 = load i8, i8* %31, align 1, !tbaa !5
  %33 = icmp slt i8 %27, %32
  br i1 %33, label %34, label %36

34:                                               ; preds = %26
  %35 = getelementptr inbounds [40 x i8], [40 x i8]* %1, i64 0, i64 %28
  store i8 %32, i8* %35, align 2, !tbaa !5
  store i8 %27, i8* %31, align 1, !tbaa !5
  br label %36

36:                                               ; preds = %26, %34
  %37 = phi i8 [ %32, %26 ], [ %27, %34 ]
  %38 = add nuw nsw i64 %28, 2
  %39 = getelementptr inbounds [40 x i8], [40 x i8]* %1, i64 0, i64 %38
  %40 = load i8, i8* %39, align 2, !tbaa !5
  %41 = icmp slt i8 %37, %40
  br i1 %41, label %100, label %102

42:                                               ; preds = %102, %19
  %43 = phi i8 [ %20, %19 ], [ %103, %102 ]
  %44 = phi i64 [ 0, %19 ], [ %38, %102 ]
  %45 = icmp eq i64 %21, 0
  br i1 %45, label %53, label %46

46:                                               ; preds = %42
  %47 = add nuw nsw i64 %44, 1
  %48 = getelementptr inbounds [40 x i8], [40 x i8]* %1, i64 0, i64 %47
  %49 = load i8, i8* %48, align 1, !tbaa !5
  %50 = icmp slt i8 %43, %49
  br i1 %50, label %51, label %53

51:                                               ; preds = %46
  %52 = getelementptr inbounds [40 x i8], [40 x i8]* %1, i64 0, i64 %44
  store i8 %49, i8* %52, align 1, !tbaa !5
  store i8 %43, i8* %48, align 1, !tbaa !5
  br label %53

53:                                               ; preds = %42, %46, %51, %14
  %54 = add nuw nsw i32 %15, 1
  %55 = icmp eq i32 %54, %12
  br i1 %55, label %25, label %14, !llvm.loop !8

56:                                               ; preds = %25, %94
  %57 = phi i32 [ %95, %94 ], [ 0, %25 ]
  %58 = sub i32 %12, %57
  %59 = zext i32 %58 to i64
  %60 = icmp sgt i32 %12, %57
  br i1 %60, label %61, label %94

61:                                               ; preds = %56
  %62 = load i8, i8* %4, align 16, !tbaa !5
  %63 = and i64 %59, 1
  %64 = icmp eq i32 %58, 1
  br i1 %64, label %83, label %65

65:                                               ; preds = %61
  %66 = and i64 %59, 4294967294
  br label %67

67:                                               ; preds = %108, %65
  %68 = phi i8 [ %62, %65 ], [ %109, %108 ]
  %69 = phi i64 [ 0, %65 ], [ %79, %108 ]
  %70 = phi i64 [ %66, %65 ], [ %110, %108 ]
  %71 = or i64 %69, 1
  %72 = getelementptr inbounds [40 x i8], [40 x i8]* %2, i64 0, i64 %71
  %73 = load i8, i8* %72, align 1, !tbaa !5
  %74 = icmp slt i8 %68, %73
  br i1 %74, label %75, label %77

75:                                               ; preds = %67
  %76 = getelementptr inbounds [40 x i8], [40 x i8]* %2, i64 0, i64 %69
  store i8 %73, i8* %76, align 2, !tbaa !5
  store i8 %68, i8* %72, align 1, !tbaa !5
  br label %77

77:                                               ; preds = %67, %75
  %78 = phi i8 [ %73, %67 ], [ %68, %75 ]
  %79 = add nuw nsw i64 %69, 2
  %80 = getelementptr inbounds [40 x i8], [40 x i8]* %2, i64 0, i64 %79
  %81 = load i8, i8* %80, align 2, !tbaa !5
  %82 = icmp slt i8 %78, %81
  br i1 %82, label %106, label %108

83:                                               ; preds = %108, %61
  %84 = phi i8 [ %62, %61 ], [ %109, %108 ]
  %85 = phi i64 [ 0, %61 ], [ %79, %108 ]
  %86 = icmp eq i64 %63, 0
  br i1 %86, label %94, label %87

87:                                               ; preds = %83
  %88 = add nuw nsw i64 %85, 1
  %89 = getelementptr inbounds [40 x i8], [40 x i8]* %2, i64 0, i64 %88
  %90 = load i8, i8* %89, align 1, !tbaa !5
  %91 = icmp slt i8 %84, %90
  br i1 %91, label %92, label %94

92:                                               ; preds = %87
  %93 = getelementptr inbounds [40 x i8], [40 x i8]* %2, i64 0, i64 %85
  store i8 %90, i8* %93, align 1, !tbaa !5
  store i8 %84, i8* %89, align 1, !tbaa !5
  br label %94

94:                                               ; preds = %83, %87, %92, %56
  %95 = add nuw nsw i32 %57, 1
  %96 = icmp eq i32 %95, %12
  br i1 %96, label %97, label %56, !llvm.loop !10

97:                                               ; preds = %94, %25, %11, %0
  %98 = phi i8* [ getelementptr inbounds ([3 x i8], [3 x i8]* @.str.1, i64 0, i64 0), %0 ], [ getelementptr inbounds ([4 x i8], [4 x i8]* @.str.2, i64 0, i64 0), %11 ], [ getelementptr inbounds ([4 x i8], [4 x i8]* @.str.2, i64 0, i64 0), %25 ], [ getelementptr inbounds ([4 x i8], [4 x i8]* @.str.2, i64 0, i64 0), %94 ]
  %99 = call i32 (i8*, ...) @printf(i8* nonnull dereferenceable(1) %98)
  call void @llvm.lifetime.end.p0i8(i64 40, i8* nonnull %4) #4
  call void @llvm.lifetime.end.p0i8(i64 40, i8* nonnull %3) #4
  ret void

100:                                              ; preds = %36
  %101 = getelementptr inbounds [40 x i8], [40 x i8]* %1, i64 0, i64 %30
  store i8 %40, i8* %101, align 1, !tbaa !5
  store i8 %37, i8* %39, align 2, !tbaa !5
  br label %102

102:                                              ; preds = %100, %36
  %103 = phi i8 [ %40, %36 ], [ %37, %100 ]
  %104 = add i64 %29, -2
  %105 = icmp eq i64 %104, 0
  br i1 %105, label %42, label %26, !llvm.loop !11

106:                                              ; preds = %77
  %107 = getelementptr inbounds [40 x i8], [40 x i8]* %2, i64 0, i64 %71
  store i8 %81, i8* %107, align 1, !tbaa !5
  store i8 %78, i8* %80, align 2, !tbaa !5
  br label %108

108:                                              ; preds = %106, %77
  %109 = phi i8 [ %81, %77 ], [ %78, %106 ]
  %110 = add i64 %70, -2
  %111 = icmp eq i64 %110, 0
  br i1 %111, label %83, label %67, !llvm.loop !12
}

; Function Attrs: argmemonly mustprogress nofree nosync nounwind willreturn
declare void @llvm.lifetime.start.p0i8(i64 immarg, i8* nocapture) #1

; Function Attrs: nofree nounwind
declare noundef i32 @__isoc99_scanf(i8* nocapture noundef readonly, ...) local_unnamed_addr #2

; Function Attrs: argmemonly mustprogress nofree nounwind readonly willreturn
declare i64 @strlen(i8* nocapture) local_unnamed_addr #3

; Function Attrs: nofree nounwind
declare noundef i32 @printf(i8* nocapture noundef readonly, ...) local_unnamed_addr #2

; Function Attrs: argmemonly mustprogress nofree nosync nounwind willreturn
declare void @llvm.lifetime.end.p0i8(i64 immarg, i8* nocapture) #1


!llvm.module.flags = !{!0, !1, !2, !3}
!llvm.ident = !{!4}

!0 = !{i32 1, !"wchar_size", i32 4}
!1 = !{i32 7, !"PIC Level", i32 2}
!2 = !{i32 7, !"PIE Level", i32 2}
!3 = !{i32 7, !"uwtable", i32 1}
!4 = !{!"clang version 13.0.0"}
!5 = !{!6, !6, i64 0}
!6 = !{!"omnipotent char", !7, i64 0}
!7 = !{!"Simple C/C++ TBAA"}
!8 = distinct !{!8, !9}
!9 = !{!"llvm.loop.mustprogress"}
!10 = distinct !{!10, !9}
!11 = distinct !{!11, !9}
!12 = distinct !{!12, !9}
